target datalayout = "e-m:e-p270:32:32-p271:32:32-p272:64:64-i64:64-i128:128-f80:128-n8:16:32:64-S128"
target triple = "x86_64-pc-linux-gnu"

@get_dh512.dh512_p = internal global [64 x i8] c"\CB\C8\E1\86\D0\1F\94\17\A6\99\F0\C6\1F\0D\AC\B6%>\069\CAr\04\B0n\DA\C0a\E6zw%\E8;\B9_\9A\B6\B5\FE\99\0B\A1\93N53\B8\E1\F1\13OY\1A\D2W\C0&!3\02\C5\AE#", align 16
@get_dh512.dh512_g = internal global [1 x i8] c"\02", align 1
@.str = private unnamed_addr constant [3 x i8] c"DH\00", align 1

; Function Attrs: nounwind uwtable
define internal ptr @get_dh_from_pg(ptr noundef %0, ptr noundef %1, ptr noundef %2, i64 noundef %3, ptr noundef %4, i64 noundef %5, ptr noundef %6, i64 noundef %7) #0 {
  %9 = alloca ptr, align 8
  %10 = alloca ptr, align 8
  %11 = alloca ptr, align 8
  %12 = alloca i64, align 8
  %13 = alloca ptr, align 8
  %14 = alloca i64, align 8
  %15 = alloca ptr, align 8
  %16 = alloca i64, align 8
  %17 = alloca ptr, align 8
  %18 = alloca ptr, align 8
  %19 = alloca ptr, align 8
  %20 = alloca ptr, align 8
  store ptr %0, ptr %9, align 8, !tbaa !4
  store ptr %1, ptr %10, align 8, !tbaa !9
  store ptr %2, ptr %11, align 8, !tbaa !9
  store i64 %3, ptr %12, align 8, !tbaa !11
  store ptr %4, ptr %13, align 8, !tbaa !9
  store i64 %5, ptr %14, align 8, !tbaa !11
  store ptr %6, ptr %15, align 8, !tbaa !9
  store i64 %7, ptr %16, align 8, !tbaa !11
  call void @llvm.lifetime.start.p0(i64 8, ptr %17) #3
  store ptr null, ptr %17, align 8, !tbaa !13
  call void @llvm.lifetime.start.p0(i64 8, ptr %18) #3
  store ptr null, ptr %18, align 8, !tbaa !15
  call void @llvm.lifetime.start.p0(i64 8, ptr %19) #3
  store ptr null, ptr %19, align 8, !tbaa !15
  call void @llvm.lifetime.start.p0(i64 8, ptr %20) #3
  store ptr null, ptr %20, align 8, !tbaa !15
  %21 = load ptr, ptr %11, align 8, !tbaa !9
  %22 = load i64, ptr %12, align 8, !tbaa !11
  %23 = trunc i64 %22 to i32
  %24 = call ptr @BN_bin2bn(ptr noundef %21, i32 noundef %23, ptr noundef null)
  store ptr %24, ptr %18, align 8, !tbaa !15
  %25 = load ptr, ptr %13, align 8, !tbaa !9
  %26 = load i64, ptr %14, align 8, !tbaa !11
  %27 = trunc i64 %26 to i32
  %28 = call ptr @BN_bin2bn(ptr noundef %25, i32 noundef %27, ptr noundef null)
  store ptr %28, ptr %19, align 8, !tbaa !15
  %29 = load ptr, ptr %18, align 8, !tbaa !15
  %30 = icmp eq ptr %29, null
  br i1 %30, label %34, label %31

31:                                               ; preds = %8
  %32 = load ptr, ptr %19, align 8, !tbaa !15
  %33 = icmp eq ptr %32, null
  br i1 %33, label %34, label %35

34:                                               ; preds = %31, %8
  br label %52

35:                                               ; preds = %31
  %36 = load ptr, ptr %15, align 8, !tbaa !9
  %37 = icmp ne ptr %36, null
  br i1 %37, label %38, label %45

38:                                               ; preds = %35
  %39 = load ptr, ptr %15, align 8, !tbaa !9
  %40 = load i64, ptr %16, align 8, !tbaa !11
  %41 = trunc i64 %40 to i32
  %42 = call ptr @BN_bin2bn(ptr noundef %39, i32 noundef %41, ptr noundef null)
  store ptr %42, ptr %20, align 8, !tbaa !15
  %43 = icmp eq ptr %42, null
  br i1 %43, label %44, label %45

44:                                               ; preds = %38
  br label %52

45:                                               ; preds = %38, %35
  %46 = load ptr, ptr %9, align 8, !tbaa !4
  %47 = load ptr, ptr %10, align 8, !tbaa !9
  %48 = load ptr, ptr %18, align 8, !tbaa !15
  %49 = load ptr, ptr %19, align 8, !tbaa !15
  %50 = load ptr, ptr %20, align 8, !tbaa !15
  %51 = call ptr @get_dh_from_pg_bn(ptr noundef %46, ptr noundef %47, ptr noundef %48, ptr noundef %49, ptr noundef %50)
  store ptr %51, ptr %17, align 8, !tbaa !13
  br label %52

52:                                               ; preds = %45, %44, %34
  %53 = load ptr, ptr %18, align 8, !tbaa !15
  call void @BN_free(ptr noundef %53)
  %54 = load ptr, ptr %19, align 8, !tbaa !15
  call void @BN_free(ptr noundef %54)
  %55 = load ptr, ptr %20, align 8, !tbaa !15
  call void @BN_free(ptr noundef %55)
  %56 = load ptr, ptr %17, align 8, !tbaa !13
  call void @llvm.lifetime.end.p0(i64 8, ptr %20) #3
  call void @llvm.lifetime.end.p0(i64 8, ptr %19) #3
  call void @llvm.lifetime.end.p0(i64 8, ptr %18) #3
  call void @llvm.lifetime.end.p0(i64 8, ptr %17) #3
  ret ptr %56
}

; Function Attrs: nounwind uwtable
define dso_local ptr @get_dh512(ptr noundef %0) #0 {
  %2 = alloca ptr, align 8
  store ptr %0, ptr %2, align 8, !tbaa !4
  %3 = load ptr, ptr %2, align 8, !tbaa !4
  %4 = call ptr @get_dh_from_pg(ptr noundef %3, ptr noundef @.str, ptr noundef @get_dh512.dh512_p, i64 noundef 64, ptr noundef @get_dh512.dh512_g, i64 noundef 1, ptr noundef null, i64 noundef 0)
  ret ptr %4
}